target datalayout = "e-m:e-p270:32:32-p271:32:32-p272:64:64-i64:64-i128:128-f80:128-n8:16:32:64-S128"
target triple = "x86_64-unknown-linux-gnu"

%"class.folly::Range" = type { ptr, ptr }

; Function Attrs: mustprogress nounwind uwtable
define linkonce_odr noundef i64 @_ZNK5folly5RangeIPKcE4sizeEv(ptr noundef nonnull align 8 dereferenceable(16) %this) #2 comdat align 2 {
entry:
  %this.addr = alloca ptr, align 8
  store ptr %this, ptr %this.addr, align 8
  %this1 = load ptr, ptr %this.addr, align 8
  %e_ = getelementptr inbounds %"class.folly::Range", ptr %this1, i32 0, i32 1
  %0 = load ptr, ptr %e_, align 8
  %b_ = getelementptr inbounds %"class.folly::Range", ptr %this1, i32 0, i32 0
  %1 = load ptr, ptr %b_, align 8
  %sub.ptr.lhs.cast = ptrtoint ptr %0 to i64
  %sub.ptr.rhs.cast = ptrtoint ptr %1 to i64
  %sub.ptr.sub = sub i64 %sub.ptr.lhs.cast, %sub.ptr.rhs.cast
  ret i64 %sub.ptr.sub
}

; Function Attrs: mustprogress nounwind uwtable
define linkonce_odr noundef ptr @_ZNK5folly5RangeIPKcE4dataEv(ptr noundef nonnull align 8 dereferenceable(16) %this) #2 comdat align 2 {
entry:
  %this.addr = alloca ptr, align 8
  store ptr %this, ptr %this.addr, align 8
  %this1 = load ptr, ptr %this.addr, align 8
  %b_ = getelementptr inbounds %"class.folly::Range", ptr %this1, i32 0, i32 0
  %0 = load ptr, ptr %b_, align 8
  ret ptr %0
}

; Function Attrs: mustprogress uwtable
define noundef i32 @_ZNK8facebook5velox8DateType6toDaysEN5folly5RangeIPKcEE(ptr noundef nonnull align 8 dereferenceable(17) %this, ptr %in.coerce0, ptr %in.coerce1) #0 align 2 {
entry:
  %in = alloca %"class.folly::Range", align 8
  %this.addr = alloca ptr, align 8
  %0 = getelementptr inbounds { ptr, ptr }, ptr %in, i32 0, i32 0
  store ptr %in.coerce0, ptr %0, align 8
  %1 = getelementptr inbounds { ptr, ptr }, ptr %in, i32 0, i32 1
  store ptr %in.coerce1, ptr %1, align 8
  store ptr %this, ptr %this.addr, align 8
  %call = call noundef ptr @_ZNK5folly5RangeIPKcE4dataEv(ptr noundef nonnull align 8 dereferenceable(16) %in)
  %call2 = call noundef i64 @_ZNK5folly5RangeIPKcE4sizeEv(ptr noundef nonnull align 8 dereferenceable(16) %in)
  %call3 = call noundef i64 @_ZN8facebook5velox4util14fromDateStringEPKcm(ptr noundef %call, i64 noundef %call2)
  %conv = trunc i64 %call3 to i32
  ret i32 %conv
}