; Function Attrs: mustprogress uwtable
define noundef i32 @_ZNK8facebook5velox8DateType6toDaysEN5folly5RangeIPKcEE(ptr nocapture noundef nonnull readnone align 8 dereferenceable(17) %this, ptr %in.coerce0, ptr %in.coerce1) local_unnamed_addr #0 align 2 {
entry:
  %sub.ptr.lhs.cast.i = ptrtoint ptr %in.coerce1 to i64
  %sub.ptr.rhs.cast.i = ptrtoint ptr %in.coerce0 to i64
  %sub.ptr.sub.i = sub i64 %sub.ptr.lhs.cast.i, %sub.ptr.rhs.cast.i
  %call3 = tail call noundef i64 @_ZN8facebook5velox4util14fromDateStringEPKcm(ptr noundef %in.coerce0, i64 noundef %sub.ptr.sub.i)
  %conv = trunc i64 %call3 to i32
  ret i32 %conv
}